; Function Attrs: nounwind uwtable
define internal noundef i32 @f(double %0, ptr noundef %1, ptr noundef %2, ptr noundef readonly captures(none) %3) #0 {
  %5 = tail call ptr @N_VGetArrayPointer(ptr noundef %1) #10
  %6 = tail call ptr @N_VGetArrayPointer(ptr noundef %2) #10
  %7 = getelementptr inbounds nuw i8, ptr %3, i64 16
  %8 = load double, ptr %7, align 8, !tbaa !16
  %9 = getelementptr inbounds nuw i8, ptr %3, i64 24
  %10 = load double, ptr %9, align 8, !tbaa !17
  %11 = getelementptr inbounds nuw i8, ptr %3, i64 32
  %12 = load double, ptr %11, align 8, !tbaa !18
  %invariant.gep78 = getelementptr i8, ptr %5, i64 -16
  %invariant.gep74 = getelementptr i8, ptr %5, i64 -32
  br label %.preheader

.preheader:                                       ; preds = %4, %.split.us
  %indvars.iv63 = phi i64 [ 1, %4 ], [ %indvars.iv.next64, %.split.us ]
  %13 = add nsw i64 %indvars.iv63, -1
  %14 = icmp eq i64 %indvars.iv63, 1
  %15 = add nuw nsw i64 %indvars.iv63, -11
  %16 = icmp eq i64 %indvars.iv63, 5
  br i1 %14, label %.preheader.split.us, label %.preheader.split.preheader

.preheader.split.preheader:                       ; preds = %.preheader
  %gep79 = getelementptr double, ptr %invariant.gep78, i64 %indvars.iv63
  %invariant.gep = getelementptr double, ptr %5, i64 %indvars.iv63
  %invariant.gep70 = getelementptr double, ptr %5, i64 %15
  %invariant.gep72 = getelementptr double, ptr %5, i64 %13
  br label %.preheader.split

.preheader.split.us:                              ; preds = %.preheader
  %invariant.gep76 = getelementptr double, ptr %5, i64 %15
  br label %.thread.us

.thread.us:                                       ; preds = %29, %.preheader.split.us
  %indvars.iv56 = phi i64 [ %indvars.iv.next57, %29 ], [ 1, %.preheader.split.us ]
  %17 = mul nuw nsw i64 %indvars.iv56, 5
  %18 = add nsw i64 %17, -5
  %19 = getelementptr inbounds double, ptr %5, i64 %18
  %20 = load double, ptr %19, align 8, !tbaa !23
  %gep75 = getelementptr double, ptr %invariant.gep74, i64 %17
  %21 = load double, ptr %gep75, align 8, !tbaa !23
  %22 = icmp eq i64 %indvars.iv56, 1
  br i1 %22, label %.thread46.us, label %23

23:                                               ; preds = %.thread.us
  %gep77 = getelementptr double, ptr %invariant.gep76, i64 %17
  %24 = load double, ptr %gep77, align 8, !tbaa !23
  %25 = icmp eq i64 %indvars.iv56, 10
  br i1 %25, label %29, label %.thread46.us

.thread46.us:                                     ; preds = %23, %.thread.us
  %26 = phi double [ %24, %23 ], [ 0.000000e+00, %.thread.us ]
  %27 = getelementptr inbounds nuw double, ptr %5, i64 %17
  %28 = load double, ptr %27, align 8, !tbaa !23
  br label %29

29:                                               ; preds = %.thread46.us, %23
  %30 = phi double [ %26, %.thread46.us ], [ %24, %23 ]
  %31 = phi double [ %28, %.thread46.us ], [ 0.000000e+00, %23 ]
  %32 = tail call double @llvm.fmuladd.f64(double %20, double -2.000000e+00, double %30)
  %33 = fadd double %32, %31
  %34 = fmul double %8, %33
  %35 = fsub double %31, %30
  %36 = fmul double %10, %35
  %37 = tail call double @llvm.fmuladd.f64(double %20, double -2.000000e+00, double %21)
  %38 = fadd double %37, 0.000000e+00
  %39 = fmul double %12, %38
  %40 = fadd double %34, %36
  %41 = fadd double %39, %40
  %42 = getelementptr inbounds double, ptr %6, i64 %18
  store double %41, ptr %42, align 8, !tbaa !23
  %indvars.iv.next57 = add nuw nsw i64 %indvars.iv56, 1
  %exitcond62.not = icmp eq i64 %indvars.iv.next57, 11
  br i1 %exitcond62.not, label %.split.us, label %.thread.us

.preheader.split:                                 ; preds = %.preheader.split.preheader, %59
  %indvars.iv = phi i64 [ 1, %.preheader.split.preheader ], [ %indvars.iv.next, %59 ]
  %43 = mul nuw nsw i64 %indvars.iv, 5
  %44 = add nsw i64 %43, -5
  %45 = add nuw nsw i64 %44, %13
  %46 = getelementptr inbounds double, ptr %5, i64 %45
  %47 = load double, ptr %46, align 8, !tbaa !23
  %48 = getelementptr double, ptr %gep79, i64 %44
  %49 = load double, ptr %48, align 8, !tbaa !23
  br i1 %16, label %51, label %.thread

.thread:                                          ; preds = %.preheader.split
  %gep = getelementptr double, ptr %invariant.gep, i64 %44
  %50 = load double, ptr %gep, align 8, !tbaa !23
  br label %51

51:                                               ; preds = %.preheader.split, %.thread
  %52 = phi double [ %50, %.thread ], [ 0.000000e+00, %.preheader.split ]
  %53 = icmp eq i64 %indvars.iv, 1
  br i1 %53, label %.thread46, label %54

54:                                               ; preds = %51
  %gep71 = getelementptr double, ptr %invariant.gep70, i64 %43
  %55 = load double, ptr %gep71, align 8, !tbaa !23
  %56 = icmp eq i64 %indvars.iv, 10
  br i1 %56, label %59, label %.thread46

.thread46:                                        ; preds = %51, %54
  %57 = phi double [ %55, %54 ], [ 0.000000e+00, %51 ]
  %gep73 = getelementptr double, ptr %invariant.gep72, i64 %43
  %58 = load double, ptr %gep73, align 8, !tbaa !23
  br label %59

59:                                               ; preds = %54, %.thread46
  %60 = phi double [ %57, %.thread46 ], [ %55, %54 ]
  %61 = phi double [ %58, %.thread46 ], [ 0.000000e+00, %54 ]
  %62 = tail call double @llvm.fmuladd.f64(double %47, double -2.000000e+00, double %60)
  %63 = fadd double %62, %61
  %64 = fmul double %8, %63
  %65 = fsub double %61, %60
  %66 = fmul double %10, %65
  %67 = tail call double @llvm.fmuladd.f64(double %47, double -2.000000e+00, double %52)
  %68 = fadd double %49, %67
  %69 = fmul double %12, %68
  %70 = fadd double %64, %66
  %71 = fadd double %69, %70
  %72 = getelementptr inbounds double, ptr %6, i64 %45
  store double %71, ptr %72, align 8, !tbaa !23
  %indvars.iv.next = add nuw nsw i64 %indvars.iv, 1
  %exitcond.not = icmp eq i64 %indvars.iv.next, 11
  br i1 %exitcond.not, label %.split.us, label %.preheader.split

.split.us:                                        ; preds = %59, %29
  %indvars.iv.next64 = add nuw nsw i64 %indvars.iv63, 1
  %exitcond68.not = icmp eq i64 %indvars.iv.next64, 6
  br i1 %exitcond68.not, label %73, label %.preheader

73:                                               ; preds = %.split.us
  ret i32 0
}